target datalayout = "e-m:e-p270:32:32-p271:32:32-p272:64:64-i64:64-i128:128-f80:128-n8:16:32:64-S128"
target triple = "x86_64-pc-linux-gnu"

%"struct.pxrInternal_v0_24__pxrReserved__::TsTest_SplineData::Extrapolation" = type <{ i32, [4 x i8], double, i32, [4 x i8] }>

; Function Attrs: mustprogress nounwind uwtable
define noundef zeroext i1 @_ZNK32pxrInternal_v0_24__pxrReserved__17TsTest_SplineData13ExtrapolationeqERKS1_(ptr noundef nonnull align 8 dereferenceable(20) %0, ptr noundef nonnull align 8 dereferenceable(20) %1) #2 align 2 {
  %3 = alloca ptr, align 8
  %4 = alloca ptr, align 8
  store ptr %0, ptr %3, align 8
  store ptr %1, ptr %4, align 8
  %5 = load ptr, ptr %3, align 8
  %6 = getelementptr inbounds nuw %"struct.pxrInternal_v0_24__pxrReserved__::TsTest_SplineData::Extrapolation", ptr %5, i32 0, i32 0
  %7 = load i32, ptr %6, align 8
  %8 = load ptr, ptr %4, align 8
  %9 = getelementptr inbounds nuw %"struct.pxrInternal_v0_24__pxrReserved__::TsTest_SplineData::Extrapolation", ptr %8, i32 0, i32 0
  %10 = load i32, ptr %9, align 8
  %11 = icmp eq i32 %7, %10
  br i1 %11, label %12, label %36

12:                                               ; preds = %2
  %13 = getelementptr inbounds nuw %"struct.pxrInternal_v0_24__pxrReserved__::TsTest_SplineData::Extrapolation", ptr %5, i32 0, i32 0
  %14 = load i32, ptr %13, align 8
  %15 = icmp ne i32 %14, 2
  br i1 %15, label %23, label %16

16:                                               ; preds = %12
  %17 = getelementptr inbounds nuw %"struct.pxrInternal_v0_24__pxrReserved__::TsTest_SplineData::Extrapolation", ptr %5, i32 0, i32 2
  %18 = load double, ptr %17, align 8
  %19 = load ptr, ptr %4, align 8
  %20 = getelementptr inbounds nuw %"struct.pxrInternal_v0_24__pxrReserved__::TsTest_SplineData::Extrapolation", ptr %19, i32 0, i32 2
  %21 = load double, ptr %20, align 8
  %22 = fcmp oeq double %18, %21
  br i1 %22, label %23, label %36

23:                                               ; preds = %16, %12
  %24 = getelementptr inbounds nuw %"struct.pxrInternal_v0_24__pxrReserved__::TsTest_SplineData::Extrapolation", ptr %5, i32 0, i32 0
  %25 = load i32, ptr %24, align 8
  %26 = icmp ne i32 %25, 3
  br i1 %26, label %34, label %27

27:                                               ; preds = %23
  %28 = getelementptr inbounds nuw %"struct.pxrInternal_v0_24__pxrReserved__::TsTest_SplineData::Extrapolation", ptr %5, i32 0, i32 3
  %29 = load i32, ptr %28, align 8
  %30 = load ptr, ptr %4, align 8
  %31 = getelementptr inbounds nuw %"struct.pxrInternal_v0_24__pxrReserved__::TsTest_SplineData::Extrapolation", ptr %30, i32 0, i32 3
  %32 = load i32, ptr %31, align 8
  %33 = icmp eq i32 %29, %32
  br label %34

34:                                               ; preds = %27, %23
  %35 = phi i1 [ true, %23 ], [ %33, %27 ]
  br label %36

36:                                               ; preds = %34, %16, %2
  %37 = phi i1 [ false, %16 ], [ false, %2 ], [ %35, %34 ]
  ret i1 %37
}

; Function Attrs: mustprogress nounwind uwtable
define noundef zeroext i1 @_ZNK32pxrInternal_v0_24__pxrReserved__17TsTest_SplineData13ExtrapolationneERKS1_(ptr noundef nonnull align 8 dereferenceable(20) %0, ptr noundef nonnull align 8 dereferenceable(20) %1) #2 align 2 {
  %3 = alloca ptr, align 8
  %4 = alloca ptr, align 8
  store ptr %0, ptr %3, align 8
  store ptr %1, ptr %4, align 8
  %5 = load ptr, ptr %3, align 8
  %6 = load ptr, ptr %4, align 8
  %7 = call noundef zeroext i1 @_ZNK32pxrInternal_v0_24__pxrReserved__17TsTest_SplineData13ExtrapolationeqERKS1_(ptr noundef nonnull align 8 dereferenceable(20) %5, ptr noundef nonnull align 8 dereferenceable(20) %6)
  %8 = xor i1 %7, true
  ret i1 %8
}